; Function Attrs: mustprogress uwtable
define hidden noundef ptr @_ZN19OpenColorIO_v2_5dev11ConfigUtils16getDataSpaceNameERKSt10shared_ptrIKNS_6ConfigEE(ptr noundef nonnull readonly align 8 captures(none) dereferenceable(16) %0) local_unnamed_addr #6 personality ptr @__gxx_personality_v0 {
  %2 = alloca %"class.std::shared_ptr", align 8
  %3 = load ptr, ptr %0, align 8, !tbaa !8
  %4 = tail call noundef i32 @_ZNK19OpenColorIO_v2_5dev6Config17getNumColorSpacesENS_24SearchReferenceSpaceTypeENS_20ColorSpaceVisibilityE(ptr noundef nonnull align 8 dereferenceable(8) %3, i32 noundef 0, i32 noundef 2)
  %.not15 = icmp sgt i32 %4, 0
  br i1 %.not15, label %.lr.ph, label %._crit_edge

.lr.ph:                                           ; preds = %1
  %5 = getelementptr inbounds nuw i8, ptr %2, i64 8
  br label %8

6:                                                ; preds = %_ZNSt12__shared_ptrIKN19OpenColorIO_v2_5dev10ColorSpaceELN9__gnu_cxx12_Lock_policyE2EED2Ev.exit
  %7 = add nuw nsw i32 %.01416, 1
  %exitcond.not = icmp eq i32 %7, %4
  br i1 %exitcond.not, label %._crit_edge, label %8, !llvm.loop !46

8:                                                ; preds = %.lr.ph, %6
  %.01416 = phi i32 [ 0, %.lr.ph ], [ %7, %6 ]
  %9 = load ptr, ptr %0, align 8, !tbaa !8
  %10 = call noundef ptr @_ZNK19OpenColorIO_v2_5dev6Config24getColorSpaceNameByIndexENS_24SearchReferenceSpaceTypeENS_20ColorSpaceVisibilityEi(ptr noundef nonnull align 8 dereferenceable(8) %9, i32 noundef 0, i32 noundef 2, i32 noundef %.01416)
  call void @llvm.lifetime.start.p0(i64 16, ptr nonnull %2) #23
  %11 = load ptr, ptr %0, align 8, !tbaa !8
  call void @_ZNK19OpenColorIO_v2_5dev6Config13getColorSpaceEPKc(ptr dead_on_unwind nonnull writable sret(%"class.std::shared_ptr") align 8 %2, ptr noundef nonnull align 8 dereferenceable(8) %11, ptr noundef %10)
  %12 = load ptr, ptr %2, align 8, !tbaa !13
  %13 = call noundef zeroext i1 @_ZNK19OpenColorIO_v2_5dev10ColorSpace6isDataEv(ptr noundef nonnull align 8 dereferenceable(8) %12) #23
  %14 = load ptr, ptr %5, align 8, !tbaa !24
  %.not.i.i = icmp eq ptr %14, null
  br i1 %.not.i.i, label %_ZNSt12__shared_ptrIKN19OpenColorIO_v2_5dev10ColorSpaceELN9__gnu_cxx12_Lock_policyE2EED2Ev.exit, label %15

15:                                               ; preds = %8
  %16 = getelementptr inbounds nuw i8, ptr %14, i64 8
  %17 = load atomic i64, ptr %16 acquire, align 8
  %18 = icmp eq i64 %17, 4294967297
  %19 = trunc i64 %17 to i32
  br i1 %18, label %20, label %28

20:                                               ; preds = %15
  store i32 0, ptr %16, align 8, !tbaa !25
  %21 = getelementptr inbounds nuw i8, ptr %14, i64 12
  store i32 0, ptr %21, align 4, !tbaa !28
  %22 = load ptr, ptr %14, align 8, !tbaa !29
  %23 = getelementptr inbounds nuw i8, ptr %22, i64 16
  %24 = load ptr, ptr %23, align 8
  call void %24(ptr noundef nonnull align 8 dereferenceable(16) %14) #23
  %25 = load ptr, ptr %14, align 8, !tbaa !29
  %26 = getelementptr inbounds nuw i8, ptr %25, i64 24
  %27 = load ptr, ptr %26, align 8
  call void %27(ptr noundef nonnull align 8 dereferenceable(16) %14) #23
  br label %_ZNSt12__shared_ptrIKN19OpenColorIO_v2_5dev10ColorSpaceELN9__gnu_cxx12_Lock_policyE2EED2Ev.exit

28:                                               ; preds = %15
  %29 = load i8, ptr @__libc_single_threaded, align 1, !tbaa !21
  %.not.i.i.i = icmp eq i8 %29, 0
  br i1 %.not.i.i.i, label %32, label %30

30:                                               ; preds = %28
  %31 = add nsw i32 %19, -1
  store i32 %31, ptr %16, align 4, !tbaa !31
  br label %_ZN9__gnu_cxx27__exchange_and_add_dispatchEPii.exit.i.i.i

32:                                               ; preds = %28
  %33 = atomicrmw volatile add ptr %16, i32 -1 acq_rel, align 4
  br label %_ZN9__gnu_cxx27__exchange_and_add_dispatchEPii.exit.i.i.i

_ZN9__gnu_cxx27__exchange_and_add_dispatchEPii.exit.i.i.i: ; preds = %32, %30
  %.0.i.i.i.i = phi i32 [ %19, %30 ], [ %33, %32 ]
  %34 = icmp eq i32 %.0.i.i.i.i, 1
  br i1 %34, label %35, label %_ZNSt12__shared_ptrIKN19OpenColorIO_v2_5dev10ColorSpaceELN9__gnu_cxx12_Lock_policyE2EED2Ev.exit, !prof !32

35:                                               ; preds = %_ZN9__gnu_cxx27__exchange_and_add_dispatchEPii.exit.i.i.i
  call void @_ZNSt16_Sp_counted_baseILN9__gnu_cxx12_Lock_policyE2EE24_M_release_last_use_coldEv(ptr noundef nonnull align 8 dereferenceable(16) %14) #23
  br label %_ZNSt12__shared_ptrIKN19OpenColorIO_v2_5dev10ColorSpaceELN9__gnu_cxx12_Lock_policyE2EED2Ev.exit

_ZNSt12__shared_ptrIKN19OpenColorIO_v2_5dev10ColorSpaceELN9__gnu_cxx12_Lock_policyE2EED2Ev.exit: ; preds = %8, %20, %_ZN9__gnu_cxx27__exchange_and_add_dispatchEPii.exit.i.i.i, %35
  call void @llvm.lifetime.end.p0(i64 16, ptr nonnull %2) #23
  br i1 %13, label %._crit_edge, label %6

._crit_edge:                                      ; preds = %_ZNSt12__shared_ptrIKN19OpenColorIO_v2_5dev10ColorSpaceELN9__gnu_cxx12_Lock_policyE2EED2Ev.exit, %6, %1
  %spec.select = phi ptr [ @.str.14, %1 ], [ @.str.14, %6 ], [ %10, %_ZNSt12__shared_ptrIKN19OpenColorIO_v2_5dev10ColorSpaceELN9__gnu_cxx12_Lock_policyE2EED2Ev.exit ]
  ret ptr %spec.select
}